target datalayout = "e-m:e-p270:32:32-p271:32:32-p272:64:64-i64:64-i128:128-f80:128-n8:16:32:64-S128"
target triple = "x86_64-pc-linux-gnu"

; Function Attrs: nounwind uwtable
define internal i32 @u2a(ptr noundef %0, i32 noundef %1) #0 {
  %3 = alloca i32, align 4
  %4 = alloca ptr, align 8
  %5 = alloca i32, align 4
  %6 = alloca ptr, align 8
  %7 = alloca i32, align 4
  %8 = alloca i32, align 4
  %9 = alloca i32, align 4
  store ptr %0, ptr %4, align 8
  store i32 %1, ptr %5, align 4
  %10 = load ptr, ptr %4, align 8
  store ptr %10, ptr %6, align 8
  %11 = load i32, ptr %5, align 4
  %12 = icmp ult i32 %11, 2
  br i1 %12, label %13, label %15

13:                                               ; preds = %2
  %14 = load i32, ptr %5, align 4
  store i32 %14, ptr %3, align 4
  br label %108

15:                                               ; preds = %2
  %16 = load i32, ptr %5, align 4
  %17 = icmp ugt i32 %16, 4
  br i1 %17, label %18, label %41

18:                                               ; preds = %15
  %19 = load ptr, ptr %6, align 8
  %20 = getelementptr inbounds i8, ptr %19, i64 0
  %21 = load i8, ptr %20, align 1
  %22 = zext i8 %21 to i32
  %23 = icmp eq i32 %22, 255
  br i1 %23, label %24, label %41

24:                                               ; preds = %18
  %25 = load ptr, ptr %6, align 8
  %26 = getelementptr inbounds i8, ptr %25, i64 1
  %27 = load i8, ptr %26, align 1
  %28 = zext i8 %27 to i32
  %29 = icmp eq i32 %28, 254
  br i1 %29, label %30, label %41

30:                                               ; preds = %24
  %31 = load ptr, ptr %6, align 8
  %32 = getelementptr inbounds i8, ptr %31, i64 2
  %33 = load i8, ptr %32, align 1
  %34 = zext i8 %33 to i32
  %35 = icmp ne i32 %34, 0
  br i1 %35, label %36, label %41

36:                                               ; preds = %30
  %37 = load i32, ptr %5, align 4
  %38 = sub i32 %37, 2
  store i32 %38, ptr %5, align 4
  %39 = load ptr, ptr %6, align 8
  %40 = getelementptr inbounds i8, ptr %39, i64 2
  store ptr %40, ptr %6, align 8
  br label %87

41:                                               ; preds = %30, %24, %18, %15
  store i32 0, ptr %9, align 4
  %42 = load i32, ptr %5, align 4
  %43 = icmp ugt i32 %42, 20
  br i1 %43, label %44, label %45

44:                                               ; preds = %41
  br label %48

45:                                               ; preds = %41
  %46 = load i32, ptr %5, align 4
  %47 = and i32 %46, -2
  br label %48

48:                                               ; preds = %45, %44
  %49 = phi i32 [ 20, %44 ], [ %47, %45 ]
  store i32 %49, ptr %8, align 4
  store i32 0, ptr %7, align 4
  br label %50

50:                                               ; preds = %76, %48
  %51 = load i32, ptr %7, align 4
  %52 = load i32, ptr %8, align 4
  %53 = icmp ult i32 %51, %52
  br i1 %53, label %54, label %79

54:                                               ; preds = %50
  %55 = load ptr, ptr %6, align 8
  %56 = load i32, ptr %7, align 4
  %57 = zext i32 %56 to i64
  %58 = getelementptr inbounds i8, ptr %55, i64 %57
  %59 = load i8, ptr %58, align 1
  %60 = zext i8 %59 to i32
  %61 = icmp ne i32 %60, 0
  br i1 %61, label %62, label %71

62:                                               ; preds = %54
  %63 = load ptr, ptr %6, align 8
  %64 = load i32, ptr %7, align 4
  %65 = add i32 %64, 1
  %66 = zext i32 %65 to i64
  %67 = getelementptr inbounds i8, ptr %63, i64 %66
  %68 = load i8, ptr %67, align 1
  %69 = zext i8 %68 to i32
  %70 = icmp eq i32 %69, 0
  br label %71

71:                                               ; preds = %62, %54
  %72 = phi i1 [ false, %54 ], [ %70, %62 ]
  %73 = zext i1 %72 to i32
  %74 = load i32, ptr %9, align 4
  %75 = add i32 %74, %73
  store i32 %75, ptr %9, align 4
  br label %76

76:                                               ; preds = %71
  %77 = load i32, ptr %7, align 4
  %78 = add i32 %77, 2
  store i32 %78, ptr %7, align 4
  br label %50

79:                                               ; preds = %50
  %80 = load i32, ptr %9, align 4
  %81 = mul i32 %80, 4
  %82 = load i32, ptr %8, align 4
  %83 = icmp ult i32 %81, %82
  br i1 %83, label %84, label %86

84:                                               ; preds = %79
  %85 = load i32, ptr %5, align 4
  store i32 %85, ptr %3, align 4
  br label %108

86:                                               ; preds = %79
  br label %87

87:                                               ; preds = %86, %36
  %88 = load i32, ptr %5, align 4
  store i32 %88, ptr %8, align 4
  %89 = load i32, ptr %5, align 4
  %90 = lshr i32 %89, 1
  store i32 %90, ptr %5, align 4
  store i32 0, ptr %7, align 4
  br label %91

91:                                               ; preds = %103, %87
  %92 = load i32, ptr %7, align 4
  %93 = load i32, ptr %8, align 4
  %94 = icmp ult i32 %92, %93
  br i1 %94, label %95, label %106

95:                                               ; preds = %91
  %96 = load ptr, ptr %6, align 8
  %97 = load i32, ptr %7, align 4
  %98 = zext i32 %97 to i64
  %99 = getelementptr inbounds i8, ptr %96, i64 %98
  %100 = load i8, ptr %99, align 1
  %101 = load ptr, ptr %4, align 8
  %102 = getelementptr inbounds i8, ptr %101, i32 1
  store ptr %102, ptr %4, align 8
  store i8 %100, ptr %101, align 1
  br label %103

103:                                              ; preds = %95
  %104 = load i32, ptr %7, align 4
  %105 = add i32 %104, 2
  store i32 %105, ptr %7, align 4
  br label %91

106:                                              ; preds = %91
  %107 = load i32, ptr %5, align 4
  store i32 %107, ptr %3, align 4
  br label %108

108:                                              ; preds = %106, %84, %13
  %109 = load i32, ptr %3, align 4
  ret i32 %109
}