; Function Attrs: nofree norecurse nosync nounwind memory(readwrite, inaccessiblemem: none) uwtable
define internal fastcc void @u2a(ptr nocapture noundef %0, i32 noundef %1) unnamed_addr #6 {
  %3 = icmp ult i32 %1, 2
  br i1 %3, label %.loopexit, label %4

4:                                                ; preds = %2
  %5 = icmp ugt i32 %1, 4
  br i1 %5, label %6, label %17

6:                                                ; preds = %4
  %7 = load i8, ptr %0, align 1
  %8 = icmp eq i8 %7, -1
  br i1 %8, label %9, label %17

9:                                                ; preds = %6
  %10 = getelementptr inbounds i8, ptr %0, i64 1
  %11 = load i8, ptr %10, align 1
  %12 = icmp eq i8 %11, -2
  br i1 %12, label %13, label %17

13:                                               ; preds = %9
  %14 = getelementptr inbounds i8, ptr %0, i64 2
  %15 = load i8, ptr %14, align 1
  %.not = icmp eq i8 %15, 0
  br i1 %.not, label %17, label %.thread

.thread:                                          ; preds = %13
  %16 = add i32 %1, -2
  br label %.lr.ph45.preheader

17:                                               ; preds = %13, %9, %6, %4
  %18 = icmp ugt i32 %1, 20
  %19 = and i32 %1, -2
  %20 = select i1 %18, i32 20, i32 %19
  %.not46 = icmp eq i32 %20, 0
  br i1 %.not46, label %._crit_edge, label %.lr.ph.preheader

.lr.ph.preheader:                                 ; preds = %17
  %21 = zext i32 %20 to i64
  br label %.lr.ph

.lr.ph:                                           ; preds = %.lr.ph.preheader, %29
  %indvars.iv = phi i64 [ 0, %.lr.ph.preheader ], [ %indvars.iv.next, %29 ]
  %.041 = phi i32 [ 0, %.lr.ph.preheader ], [ %32, %29 ]
  %22 = getelementptr inbounds i8, ptr %0, i64 %indvars.iv
  %23 = load i8, ptr %22, align 1
  %.not39 = icmp eq i8 %23, 0
  br i1 %.not39, label %29, label %24

24:                                               ; preds = %.lr.ph
  %25 = or disjoint i64 %indvars.iv, 1
  %26 = getelementptr inbounds i8, ptr %0, i64 %25
  %27 = load i8, ptr %26, align 1
  %28 = icmp eq i8 %27, 0
  br label %29

29:                                               ; preds = %24, %.lr.ph
  %30 = phi i1 [ false, %.lr.ph ], [ %28, %24 ]
  %31 = zext i1 %30 to i32
  %32 = add i32 %.041, %31
  %indvars.iv.next = add nuw nsw i64 %indvars.iv, 2
  %33 = icmp ult i64 %indvars.iv.next, %21
  br i1 %33, label %.lr.ph, label %._crit_edge.loopexit

._crit_edge.loopexit:                             ; preds = %29
  %34 = shl i32 %32, 2
  br label %._crit_edge

._crit_edge:                                      ; preds = %._crit_edge.loopexit, %17
  %.0.lcssa = phi i32 [ 0, %17 ], [ %34, %._crit_edge.loopexit ]
  %35 = icmp ult i32 %.0.lcssa, %20
  br i1 %35, label %.loopexit, label %.lr.ph45.preheader

.lr.ph45.preheader:                               ; preds = %._crit_edge, %.thread
  %.03253 = phi ptr [ %14, %.thread ], [ %0, %._crit_edge ]
  %.03352 = phi i32 [ %16, %.thread ], [ %1, %._crit_edge ]
  br label %.lr.ph45

.lr.ph45:                                         ; preds = %.lr.ph45.preheader, %.lr.ph45
  %.143 = phi i32 [ %40, %.lr.ph45 ], [ 0, %.lr.ph45.preheader ]
  %.03442 = phi ptr [ %39, %.lr.ph45 ], [ %0, %.lr.ph45.preheader ]
  %36 = zext i32 %.143 to i64
  %37 = getelementptr inbounds i8, ptr %.03253, i64 %36
  %38 = load i8, ptr %37, align 1
  %39 = getelementptr inbounds i8, ptr %.03442, i64 1
  store i8 %38, ptr %.03442, align 1
  %40 = add i32 %.143, 2
  %41 = icmp ult i32 %40, %.03352
  br i1 %41, label %.lr.ph45, label %.loopexit

.loopexit:                                        ; preds = %.lr.ph45, %._crit_edge, %2
  ret void
}